target datalayout = "e-m:e-p270:32:32-p271:32:32-p272:64:64-i64:64-i128:128-f80:128-n8:16:32:64-S128"
target triple = "x86_64-pc-linux-gnu"

%struct.ImVec2 = type { float, float }
%struct.ImVec4 = type { float, float, float, float }
%struct.ImDrawListSharedData = type { %struct.ImVec2, ptr, float, float, float, float, %struct.ImVec4, i32, %struct.ImVector, [48 x %struct.ImVec2], float, [64 x i8], ptr }
%struct.ImVector = type { i32, i32, ptr }

; Function Attrs: inlinehint mustprogress nounwind uwtable
define internal noundef float @_ZL5ImMaxIfET_S0_S0_(float noundef %0, float noundef %1) #7 {
  %3 = alloca float, align 4
  %4 = alloca float, align 4
  store float %0, ptr %3, align 4, !tbaa !12
  store float %1, ptr %4, align 4, !tbaa !12
  %5 = load float, ptr %3, align 4, !tbaa !12
  %6 = load float, ptr %4, align 4, !tbaa !12
  %7 = fcmp oge float %5, %6
  br i1 %7, label %8, label %10

8:                                                ; preds = %2
  %9 = load float, ptr %3, align 4, !tbaa !12
  br label %12

10:                                               ; preds = %2
  %11 = load float, ptr %4, align 4, !tbaa !12
  br label %12

12:                                               ; preds = %10, %8
  %13 = phi float [ %9, %8 ], [ %11, %10 ]
  ret float %13
}

; Function Attrs: inlinehint mustprogress nounwind uwtable
define internal noundef i32 @_ZL7ImClampIiET_S0_S0_S0_(i32 noundef %0, i32 noundef %1, i32 noundef %2) #7 {
  %4 = alloca i32, align 4
  %5 = alloca i32, align 4
  %6 = alloca i32, align 4
  store i32 %0, ptr %4, align 4, !tbaa !21
  store i32 %1, ptr %5, align 4, !tbaa !21
  store i32 %2, ptr %6, align 4, !tbaa !21
  %7 = load i32, ptr %4, align 4, !tbaa !21
  %8 = load i32, ptr %5, align 4, !tbaa !21
  %9 = icmp slt i32 %7, %8
  br i1 %9, label %10, label %12

10:                                               ; preds = %3
  %11 = load i32, ptr %5, align 4, !tbaa !21
  br label %22

12:                                               ; preds = %3
  %13 = load i32, ptr %4, align 4, !tbaa !21
  %14 = load i32, ptr %6, align 4, !tbaa !21
  %15 = icmp sgt i32 %13, %14
  br i1 %15, label %16, label %18

16:                                               ; preds = %12
  %17 = load i32, ptr %6, align 4, !tbaa !21
  br label %20

18:                                               ; preds = %12
  %19 = load i32, ptr %4, align 4, !tbaa !21
  br label %20

20:                                               ; preds = %18, %16
  %21 = phi i32 [ %17, %16 ], [ %19, %18 ]
  br label %22

22:                                               ; preds = %20, %10
  %23 = phi i32 [ %11, %10 ], [ %21, %20 ]
  ret i32 %23
}

; Function Attrs: inlinehint mustprogress nounwind uwtable
define internal noundef float @_ZL5ImMinIfET_S0_S0_(float noundef %0, float noundef %1) #7 {
  %3 = alloca float, align 4
  %4 = alloca float, align 4
  store float %0, ptr %3, align 4, !tbaa !12
  store float %1, ptr %4, align 4, !tbaa !12
  %5 = load float, ptr %3, align 4, !tbaa !12
  %6 = load float, ptr %4, align 4, !tbaa !12
  %7 = fcmp olt float %5, %6
  br i1 %7, label %8, label %10

8:                                                ; preds = %2
  %9 = load float, ptr %3, align 4, !tbaa !12
  br label %12

10:                                               ; preds = %2
  %11 = load float, ptr %4, align 4, !tbaa !12
  br label %12

12:                                               ; preds = %10, %8
  %13 = phi float [ %9, %8 ], [ %11, %10 ]
  ret float %13
}

; Function Attrs: mustprogress uwtable
define dso_local void @_ZN20ImDrawListSharedData29SetCircleTessellationMaxErrorEf(ptr noundef nonnull align 8 dereferenceable(536) %0, float noundef %1) #6 align 2 {
  %3 = alloca ptr, align 8
  %4 = alloca float, align 4
  %5 = alloca i32, align 4
  %6 = alloca float, align 4
  store ptr %0, ptr %3, align 8, !tbaa !19
  store float %1, ptr %4, align 4, !tbaa !12
  %7 = load ptr, ptr %3, align 8
  %8 = getelementptr inbounds nuw %struct.ImDrawListSharedData, ptr %7, i32 0, i32 5
  %9 = load float, ptr %8, align 4, !tbaa !26
  %10 = load float, ptr %4, align 4, !tbaa !12
  %11 = fcmp oeq float %9, %10
  br i1 %11, label %12, label %13

12:                                               ; preds = %2
  br label %61

13:                                               ; preds = %2
  %14 = load float, ptr %4, align 4, !tbaa !12
  %15 = getelementptr inbounds nuw %struct.ImDrawListSharedData, ptr %7, i32 0, i32 5
  store float %14, ptr %15, align 4, !tbaa !26
  call void @llvm.lifetime.start.p0(i64 4, ptr %5) #17
  store i32 0, ptr %5, align 4, !tbaa !21
  br label %16

16:                                               ; preds = %49, %13
  %17 = load i32, ptr %5, align 4, !tbaa !21
  %18 = icmp slt i32 %17, 64
  br i1 %18, label %20, label %19

19:                                               ; preds = %16
  call void @llvm.lifetime.end.p0(i64 4, ptr %5) #17
  br label %52

20:                                               ; preds = %16
  call void @llvm.lifetime.start.p0(i64 4, ptr %6) #17
  %21 = load i32, ptr %5, align 4, !tbaa !21
  %22 = sitofp i32 %21 to float
  store float %22, ptr %6, align 4, !tbaa !12
  %23 = load i32, ptr %5, align 4, !tbaa !21
  %24 = icmp sgt i32 %23, 0
  br i1 %24, label %25, label %41

25:                                               ; preds = %20
  %26 = getelementptr inbounds nuw %struct.ImDrawListSharedData, ptr %7, i32 0, i32 5
  %27 = load float, ptr %26, align 4, !tbaa !26
  %28 = load float, ptr %6, align 4, !tbaa !12
  %29 = call noundef float @_ZL5ImMinIfET_S0_S0_(float noundef %27, float noundef %28)
  %30 = load float, ptr %6, align 4, !tbaa !12
  %31 = fdiv float %29, %30
  %32 = fsub float 1.000000e+00, %31
  %33 = call float @acosf(float noundef %32) #17, !tbaa !21
  %34 = fdiv float 0x400921FB60000000, %33
  %35 = call float @llvm.ceil.f32(float %34)
  %36 = fptosi float %35 to i32
  %37 = add nsw i32 %36, 1
  %38 = sdiv i32 %37, 2
  %39 = mul nsw i32 %38, 2
  %40 = call noundef i32 @_ZL7ImClampIiET_S0_S0_S0_(i32 noundef %39, i32 noundef 4, i32 noundef 512)
  br label %42

41:                                               ; preds = %20
  br label %42

42:                                               ; preds = %41, %25
  %43 = phi i32 [ %40, %25 ], [ 48, %41 ]
  %44 = trunc i32 %43 to i8
  %45 = getelementptr inbounds nuw %struct.ImDrawListSharedData, ptr %7, i32 0, i32 11
  %46 = load i32, ptr %5, align 4, !tbaa !21
  %47 = sext i32 %46 to i64
  %48 = getelementptr inbounds [64 x i8], ptr %45, i64 0, i64 %47
  store i8 %44, ptr %48, align 1, !tbaa !41
  call void @llvm.lifetime.end.p0(i64 4, ptr %6) #17
  br label %49

49:                                               ; preds = %42
  %50 = load i32, ptr %5, align 4, !tbaa !21
  %51 = add nsw i32 %50, 1
  store i32 %51, ptr %5, align 4, !tbaa !21
  br label %16, !llvm.loop !42

52:                                               ; preds = %19
  %53 = getelementptr inbounds nuw %struct.ImDrawListSharedData, ptr %7, i32 0, i32 5
  %54 = load float, ptr %53, align 4, !tbaa !26
  %55 = call noundef float @_ZL5ImMaxIfET_S0_S0_(float noundef 4.800000e+01, float noundef 0x400921FB60000000)
  %56 = fdiv float 0x400921FB60000000, %55
  %57 = call float @cosf(float noundef %56) #17, !tbaa !21
  %58 = fsub float 1.000000e+00, %57
  %59 = fdiv float %54, %58
  %60 = getelementptr inbounds nuw %struct.ImDrawListSharedData, ptr %7, i32 0, i32 10
  store float %59, ptr %60, align 8, !tbaa !32
  br label %61

61:                                               ; preds = %52, %12
  ret void
}