; Function Attrs: mustprogress nofree nounwind memory(write, argmem: readwrite) uwtable
define dso_local void @_ZN20ImDrawListSharedData29SetCircleTessellationMaxErrorEf(ptr noundef nonnull align 8 captures(none) dereferenceable(536) %0, float noundef %1) local_unnamed_addr #7 align 2 {
  %3 = getelementptr inbounds nuw i8, ptr %0, i64 28
  %4 = load float, ptr %3, align 4, !tbaa !22
  %5 = fcmp oeq float %4, %1
  br i1 %5, label %32, label %6

6:                                                ; preds = %2
  store float %1, ptr %3, align 4, !tbaa !22
  %7 = getelementptr inbounds nuw i8, ptr %0, i64 460
  br label %11

8:                                                ; preds = %29
  %9 = fdiv float %1, 0x3F618A2000000000
  %10 = getelementptr inbounds nuw i8, ptr %0, i64 456
  store float %9, ptr %10, align 8, !tbaa !9
  br label %32

11:                                               ; preds = %6, %29
  %indvars.iv = phi i64 [ 0, %6 ], [ %indvars.iv.next, %29 ]
  %.not = icmp eq i64 %indvars.iv, 0
  br i1 %.not, label %29, label %12

12:                                               ; preds = %11
  %13 = trunc nuw nsw i64 %indvars.iv to i32
  %14 = uitofp nneg i32 %13 to float
  %15 = fcmp olt float %1, %14
  %16 = select i1 %15, float %1, float %14
  %17 = fdiv float %16, %14
  %18 = fsub float 1.000000e+00, %17
  %19 = tail call float @acosf(float noundef %18) #42, !tbaa !19
  %20 = fdiv float 0x400921FB60000000, %19
  %21 = tail call float @llvm.ceil.f32(float %20)
  %22 = fptosi float %21 to i32
  %23 = add nsw i32 %22, 1
  %24 = sdiv i32 %23, 2
  %25 = shl nsw i32 %24, 1
  %26 = tail call i32 @llvm.smin.i32(i32 range(i32 -2147483646, -2147483648) %25, i32 512)
  %27 = tail call i32 @llvm.smax.i32(i32 %26, i32 4)
  %28 = trunc i32 %27 to i8
  br label %29

29:                                               ; preds = %11, %12
  %30 = phi i8 [ %28, %12 ], [ 48, %11 ]
  %31 = getelementptr inbounds nuw [64 x i8], ptr %7, i64 0, i64 %indvars.iv
  store i8 %30, ptr %31, align 1, !tbaa !23
  %indvars.iv.next = add nuw nsw i64 %indvars.iv, 1
  %exitcond.not = icmp eq i64 %indvars.iv.next, 64
  br i1 %exitcond.not, label %8, label %11, !llvm.loop !24

32:                                               ; preds = %2, %8
  ret void
}